; Function Attrs: nounwind uwtable
define dso_local void @pgstat_attach_shmem() local_unnamed_addr #0 {
  %1 = load ptr, ptr @TopMemoryContext, align 8
  %2 = load ptr, ptr @CurrentMemoryContext, align 8
  store ptr %1, ptr @CurrentMemoryContext, align 8
  %3 = load ptr, ptr @pgStatLocal, align 8
  %4 = load ptr, ptr %3, align 8
  %5 = tail call ptr @dsa_attach_in_place(ptr noundef %4, ptr noundef null) #15
  store ptr %5, ptr getelementptr inbounds nuw (i8, ptr @pgStatLocal, i64 8), align 8
  tail call void @dsa_pin_mapping(ptr noundef %5) #15
  %6 = load ptr, ptr getelementptr inbounds nuw (i8, ptr @pgStatLocal, i64 8), align 8
  %7 = load ptr, ptr @pgStatLocal, align 8
  %8 = getelementptr inbounds nuw i8, ptr %7, i64 8
  %9 = load i64, ptr %8, align 8
  %10 = tail call ptr @dshash_attach(ptr noundef %6, ptr noundef nonnull @dsh_params, i64 noundef %9, ptr noundef null) #15
  store ptr %10, ptr getelementptr inbounds nuw (i8, ptr @pgStatLocal, i64 16), align 8
  store ptr %2, ptr @CurrentMemoryContext, align 8
  ret void
}